target datalayout = "e-m:e-p270:32:32-p271:32:32-p272:64:64-i64:64-i128:128-f80:128-n8:16:32:64-S128"
target triple = "x86_64-unknown-linux-gnu"

@.str.1 = private unnamed_addr constant [26 x i8] c"../qemu/linux-user/mmap.c\00", align 1
@qemu_host_page_mask = external global i64, align 8
@qemu_host_page_size = external global i64, align 8
@mmap_next_start = dso_local global i64 0, align 8
@reserved_va = external global i64, align 8
@guest_base = external global i64, align 8
@.str.2 = private unnamed_addr constant [15 x i8] c"h2g_valid(ptr)\00", align 1
@__PRETTY_FUNCTION__.mmap_find_vma = private unnamed_addr constant [57 x i8] c"abi_ulong mmap_find_vma(abi_ulong, abi_ulong, abi_ulong)\00", align 1
@task_unmapped_base = dso_local global i64 0, align 8
@mmap_min_addr = external global i64, align 8

; Function Attrs: nounwind sspstrong uwtable
define internal ptr @g2h_untagged(i64 noundef %x) #0 {
entry:
  %x.addr = alloca i64, align 8
  store i64 %x, ptr %x.addr, align 8
  %0 = load i64, ptr %x.addr, align 8
  %1 = load i64, ptr @guest_base, align 8
  %add = add i64 %0, %1
  %2 = inttoptr i64 %add to ptr
  ret ptr %2
}

; Function Attrs: nounwind sspstrong uwtable
define internal i64 @mmap_find_vma_reserved(i64 noundef %start, i64 noundef %size, i64 noundef %align) #0 {
entry:
  %start.addr = alloca i64, align 8
  %size.addr = alloca i64, align 8
  %align.addr = alloca i64, align 8
  %ret = alloca i64, align 8
  store i64 %start, ptr %start.addr, align 8
  store i64 %size, ptr %size.addr, align 8
  store i64 %align, ptr %align.addr, align 8
  %0 = load i64, ptr %start.addr, align 8
  %1 = load i64, ptr @reserved_va, align 8
  %2 = load i64, ptr %size.addr, align 8
  %3 = load i64, ptr %align.addr, align 8
  %call = call i64 @page_find_range_empty(i64 noundef %0, i64 noundef %1, i64 noundef %2, i64 noundef %3)
  store i64 %call, ptr %ret, align 8
  %4 = load i64, ptr %ret, align 8
  %cmp = icmp eq i64 %4, -1
  br i1 %cmp, label %land.lhs.true, label %if.end

land.lhs.true:                                    ; preds = %entry
  %5 = load i64, ptr %start.addr, align 8
  %6 = load i64, ptr @mmap_min_addr, align 8
  %cmp1 = icmp ugt i64 %5, %6
  br i1 %cmp1, label %if.then, label %if.end

if.then:                                          ; preds = %land.lhs.true
  %7 = load i64, ptr @mmap_min_addr, align 8
  %8 = load i64, ptr %start.addr, align 8
  %sub = sub i64 %8, 1
  %9 = load i64, ptr %size.addr, align 8
  %10 = load i64, ptr %align.addr, align 8
  %call2 = call i64 @page_find_range_empty(i64 noundef %7, i64 noundef %sub, i64 noundef %9, i64 noundef %10)
  store i64 %call2, ptr %ret, align 8
  br label %if.end

if.end:                                           ; preds = %if.then, %land.lhs.true, %entry
  %11 = load i64, ptr %ret, align 8
  ret i64 %11
}

; Function Attrs: nounwind sspstrong uwtable
define dso_local i64 @mmap_find_vma(i64 noundef %start, i64 noundef %size, i64 noundef %align) #0 {
entry:
  %retval = alloca i64, align 8
  %start.addr = alloca i64, align 8
  %size.addr = alloca i64, align 8
  %align.addr = alloca i64, align 8
  %ptr = alloca ptr, align 8
  %prev = alloca ptr, align 8
  %addr = alloca i64, align 8
  %wrapped = alloca i32, align 4
  %repeat = alloca i32, align 4
  %_a0 = alloca i64, align 8
  %_b1 = alloca i64, align 8
  %tmp = alloca i64, align 8
  %tmp40 = alloca i64, align 8
  %__ret = alloca i64, align 8
  %tmp42 = alloca i64, align 8
  store i64 %start, ptr %start.addr, align 8
  store i64 %size, ptr %size.addr, align 8
  store i64 %align, ptr %align.addr, align 8
  %0 = load i64, ptr %align.addr, align 8
  store i64 %0, ptr %_a0, align 8
  %1 = load i64, ptr @qemu_host_page_size, align 8
  store i64 %1, ptr %_b1, align 8
  %2 = load i64, ptr %_a0, align 8
  %3 = load i64, ptr %_b1, align 8
  %cmp = icmp ugt i64 %2, %3
  br i1 %cmp, label %cond.true, label %cond.false

cond.true:                                        ; preds = %entry
  %4 = load i64, ptr %_a0, align 8
  br label %cond.end

cond.false:                                       ; preds = %entry
  %5 = load i64, ptr %_b1, align 8
  br label %cond.end

cond.end:                                         ; preds = %cond.false, %cond.true
  %cond = phi i64 [ %4, %cond.true ], [ %5, %cond.false ]
  store i64 %cond, ptr %tmp, align 8
  %6 = load i64, ptr %tmp, align 8
  store i64 %6, ptr %align.addr, align 8
  %7 = load i64, ptr %start.addr, align 8
  %cmp1 = icmp eq i64 %7, 0
  br i1 %cmp1, label %if.then, label %if.else

if.then:                                          ; preds = %cond.end
  %8 = load i64, ptr @mmap_next_start, align 8
  store i64 %8, ptr %start.addr, align 8
  br label %if.end

if.else:                                          ; preds = %cond.end
  %9 = load i64, ptr @qemu_host_page_mask, align 8
  %10 = load i64, ptr %start.addr, align 8
  %and = and i64 %10, %9
  store i64 %and, ptr %start.addr, align 8
  br label %if.end

if.end:                                           ; preds = %if.else, %if.then
  %11 = load i64, ptr %start.addr, align 8
  %12 = load i64, ptr %align.addr, align 8
  %add = add i64 %11, %12
  %sub = sub i64 %add, 1
  %13 = load i64, ptr %align.addr, align 8
  %sub2 = sub i64 0, %13
  %and3 = and i64 %sub, %sub2
  store i64 %and3, ptr %start.addr, align 8
  %14 = load i64, ptr %size.addr, align 8
  %15 = load i64, ptr @qemu_host_page_size, align 8
  %add4 = add i64 %14, %15
  %sub5 = sub i64 %add4, 1
  %16 = load i64, ptr @qemu_host_page_size, align 8
  %sub6 = sub i64 0, %16
  %and7 = and i64 %sub5, %sub6
  store i64 %and7, ptr %size.addr, align 8
  %17 = load i64, ptr @reserved_va, align 8
  %tobool = icmp ne i64 %17, 0
  br i1 %tobool, label %if.then8, label %if.end9

if.then8:                                         ; preds = %if.end
  %18 = load i64, ptr %start.addr, align 8
  %19 = load i64, ptr %size.addr, align 8
  %20 = load i64, ptr %align.addr, align 8
  %call = call i64 @mmap_find_vma_reserved(i64 noundef %18, i64 noundef %19, i64 noundef %20)
  store i64 %call, ptr %retval, align 8
  br label %return

if.end9:                                          ; preds = %if.end
  %21 = load i64, ptr %start.addr, align 8
  store i64 %21, ptr %addr, align 8
  store i32 0, ptr %repeat, align 4
  store i32 0, ptr %wrapped, align 4
  store ptr null, ptr %prev, align 8
  br label %for.cond

for.cond:                                         ; preds = %for.inc, %if.end9
  %22 = load i64, ptr %addr, align 8
  %call10 = call ptr @g2h_untagged(i64 noundef %22)
  %23 = load i64, ptr %size.addr, align 8
  %call11 = call ptr @mmap64(ptr noundef %call10, i64 noundef %23, i32 noundef 0, i32 noundef 16418, i32 noundef -1, i64 noundef 0) #8
  store ptr %call11, ptr %ptr, align 8
  %24 = load ptr, ptr %ptr, align 8
  %25 = inttoptr i64 -1 to ptr
  %cmp12 = icmp eq ptr %24, %25
  br i1 %cmp12, label %if.then13, label %if.end14

if.then13:                                        ; preds = %for.cond
  store i64 -1, ptr %retval, align 8
  br label %return

if.end14:                                         ; preds = %for.cond
  %26 = load ptr, ptr %ptr, align 8
  %27 = load ptr, ptr %prev, align 8
  %cmp15 = icmp eq ptr %26, %27
  br i1 %cmp15, label %cond.true16, label %cond.false18

cond.true16:                                      ; preds = %if.end14
  %28 = load i32, ptr %repeat, align 4
  %add17 = add i32 %28, 1
  br label %cond.end19

cond.false18:                                     ; preds = %if.end14
  br label %cond.end19

cond.end19:                                       ; preds = %cond.false18, %cond.true16
  %cond20 = phi i32 [ %add17, %cond.true16 ], [ 0, %cond.false18 ]
  store i32 %cond20, ptr %repeat, align 4
  %29 = load ptr, ptr %ptr, align 8
  %30 = load i64, ptr %size.addr, align 8
  %add.ptr = getelementptr i8, ptr %29, i64 %30
  %add.ptr21 = getelementptr i8, ptr %add.ptr, i64 -1
  %31 = ptrtoint ptr %add.ptr21 to i64
  %32 = load i64, ptr @guest_base, align 8
  %sub22 = sub i64 %31, %32
  %33 = load i64, ptr @reserved_va, align 8
  %tobool23 = icmp ne i64 %33, 0
  br i1 %tobool23, label %cond.true24, label %cond.false25

cond.true24:                                      ; preds = %cond.end19
  br label %cond.end26

cond.false25:                                     ; preds = %cond.end19
  br label %cond.end26

cond.end26:                                       ; preds = %cond.false25, %cond.true24
  %cond27 = phi i64 [ %33, %cond.true24 ], [ -1, %cond.false25 ]
  %cmp28 = icmp ule i64 %sub22, %cond27
  br i1 %cmp28, label %if.then29, label %if.else61

if.then29:                                        ; preds = %cond.end26
  %34 = load ptr, ptr %ptr, align 8
  %35 = ptrtoint ptr %34 to i64
  %36 = load i64, ptr @guest_base, align 8
  %sub30 = sub i64 %35, %36
  %37 = load i64, ptr @reserved_va, align 8
  %tobool31 = icmp ne i64 %37, 0
  br i1 %tobool31, label %cond.true32, label %cond.false33

cond.true32:                                      ; preds = %if.then29
  br label %cond.end34

cond.false33:                                     ; preds = %if.then29
  br label %cond.end34

cond.end34:                                       ; preds = %cond.false33, %cond.true32
  %cond35 = phi i64 [ %37, %cond.true32 ], [ -1, %cond.false33 ]
  %cmp36 = icmp ule i64 %sub30, %cond35
  br i1 %cmp36, label %if.then37, label %if.else38

if.then37:                                        ; preds = %cond.end34
  br label %if.end39

if.else38:                                        ; preds = %cond.end34
  call void @__assert_fail(ptr noundef @.str.2, ptr noundef @.str.1, i32 noundef 423, ptr noundef @__PRETTY_FUNCTION__.mmap_find_vma) #9
  unreachable

if.end39:                                         ; preds = %if.then37
  %38 = load ptr, ptr %ptr, align 8
  %39 = ptrtoint ptr %38 to i64
  %40 = load i64, ptr @guest_base, align 8
  %sub41 = sub i64 %39, %40
  store i64 %sub41, ptr %__ret, align 8
  %41 = load i64, ptr %__ret, align 8
  store i64 %41, ptr %tmp42, align 8
  %42 = load i64, ptr %tmp42, align 8
  store i64 %42, ptr %tmp40, align 8
  %43 = load i64, ptr %tmp40, align 8
  store i64 %43, ptr %addr, align 8
  %44 = load i64, ptr %addr, align 8
  %45 = load i64, ptr %align.addr, align 8
  %sub43 = sub i64 %45, 1
  %and44 = and i64 %44, %sub43
  %cmp45 = icmp eq i64 %and44, 0
  br i1 %cmp45, label %if.then46, label %if.end52

if.then46:                                        ; preds = %if.end39
  %46 = load i64, ptr %start.addr, align 8
  %47 = load i64, ptr @mmap_next_start, align 8
  %cmp47 = icmp eq i64 %46, %47
  br i1 %cmp47, label %land.lhs.true, label %if.end51

land.lhs.true:                                    ; preds = %if.then46
  %48 = load i64, ptr %addr, align 8
  %49 = load i64, ptr @task_unmapped_base, align 8
  %cmp48 = icmp uge i64 %48, %49
  br i1 %cmp48, label %if.then49, label %if.end51

if.then49:                                        ; preds = %land.lhs.true
  %50 = load i64, ptr %addr, align 8
  %51 = load i64, ptr %size.addr, align 8
  %add50 = add i64 %50, %51
  store i64 %add50, ptr @mmap_next_start, align 8
  br label %if.end51

if.end51:                                         ; preds = %if.then49, %land.lhs.true, %if.then46
  %52 = load i64, ptr %addr, align 8
  store i64 %52, ptr %retval, align 8
  br label %return

if.end52:                                         ; preds = %if.end39
  %53 = load i32, ptr %repeat, align 4
  switch i32 %53, label %sw.default [
    i32 0, label %sw.bb
    i32 1, label %sw.bb57
    i32 2, label %sw.bb60
  ]

sw.bb:                                            ; preds = %if.end52
  %54 = load i64, ptr %addr, align 8
  %55 = load i64, ptr %align.addr, align 8
  %add53 = add i64 %54, %55
  %sub54 = sub i64 %add53, 1
  %56 = load i64, ptr %align.addr, align 8
  %sub55 = sub i64 0, %56
  %and56 = and i64 %sub54, %sub55
  store i64 %and56, ptr %addr, align 8
  br label %sw.epilog

sw.bb57:                                          ; preds = %if.end52
  %57 = load i64, ptr %align.addr, align 8
  %sub58 = sub i64 0, %57
  %58 = load i64, ptr %addr, align 8
  %and59 = and i64 %58, %sub58
  store i64 %and59, ptr %addr, align 8
  br label %sw.epilog

sw.bb60:                                          ; preds = %if.end52
  store i64 0, ptr %addr, align 8
  br label %sw.epilog

sw.default:                                       ; preds = %if.end52
  store i64 -1, ptr %addr, align 8
  br label %sw.epilog

sw.epilog:                                        ; preds = %sw.default, %sw.bb60, %sw.bb57, %sw.bb
  br label %if.end64

if.else61:                                        ; preds = %cond.end26
  %59 = load i32, ptr %repeat, align 4
  %tobool62 = icmp ne i32 %59, 0
  %cond63 = select i1 %tobool62, i32 -1, i32 0
  %conv = sext i32 %cond63 to i64
  store i64 %conv, ptr %addr, align 8
  br label %if.end64

if.end64:                                         ; preds = %if.else61, %sw.epilog
  %60 = load ptr, ptr %ptr, align 8
  %61 = load i64, ptr %size.addr, align 8
  %call65 = call i32 @munmap(ptr noundef %60, i64 noundef %61) #8
  %62 = load i64, ptr %addr, align 8
  %cmp66 = icmp eq i64 %62, -1
  br i1 %cmp66, label %if.then68, label %if.else69

if.then68:                                        ; preds = %if.end64
  store i64 -1, ptr %retval, align 8
  br label %return

if.else69:                                        ; preds = %if.end64
  %63 = load i64, ptr %addr, align 8
  %cmp70 = icmp eq i64 %63, 0
  br i1 %cmp70, label %if.then72, label %if.else85

if.then72:                                        ; preds = %if.else69
  %64 = load i32, ptr %wrapped, align 4
  %tobool73 = icmp ne i32 %64, 0
  br i1 %tobool73, label %if.then74, label %if.end75

if.then74:                                        ; preds = %if.then72
  store i64 -1, ptr %retval, align 8
  br label %return

if.end75:                                         ; preds = %if.then72
  store i32 1, ptr %wrapped, align 4
  %65 = load i64, ptr @mmap_min_addr, align 8
  %cmp76 = icmp ugt i64 %65, 4096
  br i1 %cmp76, label %cond.true78, label %cond.false82

cond.true78:                                      ; preds = %if.end75
  %66 = load i64, ptr @mmap_min_addr, align 8
  %add79 = add i64 %66, 4096
  %sub80 = sub i64 %add79, 1
  %and81 = and i64 %sub80, -4096
  br label %cond.end83

cond.false82:                                     ; preds = %if.end75
  br label %cond.end83

cond.end83:                                       ; preds = %cond.false82, %cond.true78
  %cond84 = phi i64 [ %and81, %cond.true78 ], [ 4096, %cond.false82 ]
  store i64 %cond84, ptr %addr, align 8
  br label %if.end92

if.else85:                                        ; preds = %if.else69
  %67 = load i32, ptr %wrapped, align 4
  %tobool86 = icmp ne i32 %67, 0
  br i1 %tobool86, label %land.lhs.true87, label %if.end91

land.lhs.true87:                                  ; preds = %if.else85
  %68 = load i64, ptr %addr, align 8
  %69 = load i64, ptr %start.addr, align 8
  %cmp88 = icmp uge i64 %68, %69
  br i1 %cmp88, label %if.then90, label %if.end91

if.then90:                                        ; preds = %land.lhs.true87
  store i64 -1, ptr %retval, align 8
  br label %return

if.end91:                                         ; preds = %land.lhs.true87, %if.else85
  br label %if.end92

if.end92:                                         ; preds = %if.end91, %cond.end83
  br label %if.end93

if.end93:                                         ; preds = %if.end92
  br label %for.inc

for.inc:                                          ; preds = %if.end93
  %70 = load ptr, ptr %ptr, align 8
  store ptr %70, ptr %prev, align 8
  br label %for.cond

return:                                           ; preds = %if.then90, %if.then74, %if.then68, %if.end51, %if.then13, %if.then8
  %71 = load i64, ptr %retval, align 8
  ret i64 %71
}