; Function Attrs: nounwind sspstrong uwtable
define dso_local i64 @mmap_find_vma(i64 noundef %start, i64 noundef %size, i64 noundef %align) local_unnamed_addr #0 {
entry:
  %0 = load i64, ptr @qemu_host_page_size, align 8
  %cond = tail call i64 @llvm.umax.i64(i64 %align, i64 %0)
  %cmp1 = icmp eq i64 %start, 0
  %1 = load i64, ptr @mmap_next_start, align 8
  %2 = load i64, ptr @qemu_host_page_mask, align 8
  %and = and i64 %2, %start
  %start.addr.0 = select i1 %cmp1, i64 %1, i64 %and
  %add = add i64 %cond, -1
  %sub = add i64 %add, %start.addr.0
  %sub2 = sub i64 0, %cond
  %and3 = and i64 %sub, %sub2
  %add4 = add i64 %size, -1
  %sub5 = add i64 %add4, %0
  %sub6 = sub i64 0, %0
  %and7 = and i64 %sub5, %sub6
  %3 = load i64, ptr @reserved_va, align 8
  %tobool.not = icmp eq i64 %3, 0
  br i1 %tobool.not, label %for.cond.preheader, label %if.then8

for.cond.preheader:                               ; preds = %entry
  %4 = load i64, ptr @guest_base, align 8
  %add.i49 = add i64 %4, %and3
  %5 = inttoptr i64 %add.i49 to ptr
  %call1150 = tail call ptr @mmap64(ptr noundef %5, i64 noundef %and7, i32 noundef 0, i32 noundef 16418, i32 noundef -1, i64 noundef 0) #14
  %cmp1251 = icmp eq ptr %call1150, inttoptr (i64 -1 to ptr)
  br i1 %cmp1251, label %return, label %if.end14

if.then8:                                         ; preds = %entry
  %call.i = tail call i64 @page_find_range_empty(i64 noundef %and3, i64 noundef %3, i64 noundef %and7, i64 noundef %cond) #14
  %cmp.i = icmp eq i64 %call.i, -1
  br i1 %cmp.i, label %land.lhs.true.i, label %return

land.lhs.true.i:                                  ; preds = %if.then8
  %6 = load i64, ptr @mmap_min_addr, align 8
  %cmp1.i = icmp ugt i64 %and3, %6
  br i1 %cmp1.i, label %if.then.i, label %return

if.then.i:                                        ; preds = %land.lhs.true.i
  %sub.i = add i64 %and3, -1
  %call2.i = tail call i64 @page_find_range_empty(i64 noundef %6, i64 noundef %sub.i, i64 noundef %and7, i64 noundef %cond) #14
  br label %return

if.end14:                                         ; preds = %for.cond.preheader, %for.inc
  %call1155 = phi ptr [ %call11, %for.inc ], [ %call1150, %for.cond.preheader ]
  %prev.054 = phi ptr [ %call1155, %for.inc ], [ null, %for.cond.preheader ]
  %repeat.053 = phi i32 [ %cond20, %for.inc ], [ 0, %for.cond.preheader ]
  %wrapped.052 = phi i32 [ %wrapped.1, %for.inc ], [ 0, %for.cond.preheader ]
  %cmp15 = icmp eq ptr %call1155, %prev.054
  %add17 = add i32 %repeat.053, 1
  %cond20 = select i1 %cmp15, i32 %add17, i32 0
  %add.ptr = getelementptr i8, ptr %call1155, i64 %and7
  %add.ptr21 = getelementptr i8, ptr %add.ptr, i64 -1
  %7 = ptrtoint ptr %add.ptr21 to i64
  %8 = load i64, ptr @guest_base, align 8
  %sub22 = sub i64 %7, %8
  %9 = load i64, ptr @reserved_va, align 8
  %tobool23.not = icmp eq i64 %9, 0
  %cond27 = select i1 %tobool23.not, i64 -1, i64 %9
  %cmp28.not = icmp ugt i64 %sub22, %cond27
  br i1 %cmp28.not, label %if.else61, label %if.then29

if.then29:                                        ; preds = %if.end14
  %10 = ptrtoint ptr %call1155 to i64
  %sub30 = sub i64 %10, %8
  %cmp36.not = icmp ugt i64 %sub30, %cond27
  br i1 %cmp36.not, label %if.else38, label %if.end39

if.else38:                                        ; preds = %if.then29
  tail call void @__assert_fail(ptr noundef nonnull @.str.2, ptr noundef nonnull @.str.1, i32 noundef 423, ptr noundef nonnull @__PRETTY_FUNCTION__.mmap_find_vma) #15
  unreachable

if.end39:                                         ; preds = %if.then29
  %and44 = and i64 %sub30, %add
  %cmp45 = icmp eq i64 %and44, 0
  br i1 %cmp45, label %if.then46, label %if.end52

if.then46:                                        ; preds = %if.end39
  %11 = load i64, ptr @mmap_next_start, align 8
  %cmp47 = icmp ne i64 %and3, %11
  %12 = load i64, ptr @task_unmapped_base, align 8
  %cmp48.not = icmp ult i64 %sub30, %12
  %or.cond = select i1 %cmp47, i1 true, i1 %cmp48.not
  br i1 %or.cond, label %return, label %if.then49

if.then49:                                        ; preds = %if.then46
  %add50 = add i64 %sub30, %and7
  store i64 %add50, ptr @mmap_next_start, align 8
  br label %return

if.end52:                                         ; preds = %if.end39
  switch i32 %cond20, label %if.end64.thread [
    i32 0, label %sw.bb
    i32 1, label %sw.bb57
    i32 2, label %if.end64.thread41
  ]

if.end64.thread41:                                ; preds = %if.end52
  %call6543 = tail call i32 @munmap(ptr noundef %call1155, i64 noundef %and7) #14
  br label %if.then72

sw.bb:                                            ; preds = %if.end52
  %sub54 = add i64 %add, %sub30
  %and56 = and i64 %sub54, %sub2
  br label %if.end64

sw.bb57:                                          ; preds = %if.end52
  %and59 = and i64 %sub30, %sub2
  br label %if.end64

if.end64.thread:                                  ; preds = %if.end52
  %call6540 = tail call i32 @munmap(ptr noundef %call1155, i64 noundef %and7) #14
  br label %return

if.else61:                                        ; preds = %if.end14
  %tobool62.not = icmp ne i32 %cond20, 0
  %conv = sext i1 %tobool62.not to i64
  br label %if.end64

if.end64:                                         ; preds = %sw.bb, %sw.bb57, %if.else61
  %addr.1 = phi i64 [ %and59, %sw.bb57 ], [ %and56, %sw.bb ], [ %conv, %if.else61 ]
  %call65 = tail call i32 @munmap(ptr noundef %call1155, i64 noundef %and7) #14
  switch i64 %addr.1, label %if.else85 [
    i64 -1, label %return
    i64 0, label %if.then72
  ]

if.then72:                                        ; preds = %if.end64.thread41, %if.end64
  %tobool73.not = icmp eq i32 %wrapped.052, 0
  br i1 %tobool73.not, label %if.end75, label %return

if.end75:                                         ; preds = %if.then72
  %13 = load i64, ptr @mmap_min_addr, align 8
  %cmp76 = icmp ugt i64 %13, 4096
  %sub80 = add i64 %13, 4095
  %and81 = and i64 %sub80, -4096
  %cond84 = select i1 %cmp76, i64 %and81, i64 4096
  br label %for.inc

if.else85:                                        ; preds = %if.end64
  %tobool86.not = icmp eq i32 %wrapped.052, 0
  br i1 %tobool86.not, label %for.inc, label %land.lhs.true87

land.lhs.true87:                                  ; preds = %if.else85
  %cmp88.not = icmp ult i64 %addr.1, %and3
  br i1 %cmp88.not, label %for.inc, label %return

for.inc:                                          ; preds = %if.else85, %land.lhs.true87, %if.end75
  %wrapped.1 = phi i32 [ 1, %if.end75 ], [ 1, %land.lhs.true87 ], [ 0, %if.else85 ]
  %addr.2 = phi i64 [ %cond84, %if.end75 ], [ %addr.1, %land.lhs.true87 ], [ %addr.1, %if.else85 ]
  %14 = load i64, ptr @guest_base, align 8
  %add.i = add i64 %14, %addr.2
  %15 = inttoptr i64 %add.i to ptr
  %call11 = tail call ptr @mmap64(ptr noundef %15, i64 noundef %and7, i32 noundef 0, i32 noundef 16418, i32 noundef -1, i64 noundef 0) #14
  %cmp12 = icmp eq ptr %call11, inttoptr (i64 -1 to ptr)
  br i1 %cmp12, label %return, label %if.end14

return:                                           ; preds = %for.inc, %if.end64, %if.then72, %land.lhs.true87, %for.cond.preheader, %if.end64.thread, %if.then.i, %land.lhs.true.i, %if.then8, %if.then46, %if.then49
  %retval.0 = phi i64 [ %sub30, %if.then49 ], [ %sub30, %if.then46 ], [ %call2.i, %if.then.i ], [ -1, %land.lhs.true.i ], [ %call.i, %if.then8 ], [ -1, %if.end64.thread ], [ -1, %for.cond.preheader ], [ -1, %for.inc ], [ %addr.1, %if.end64 ], [ -1, %if.then72 ], [ -1, %land.lhs.true87 ]
  ret i64 %retval.0
}